target datalayout = "e-m:e-p270:32:32-p271:32:32-p272:64:64-i64:64-i128:128-f80:128-n8:16:32:64-S128"
target triple = "x86_64-pc-linux-gnu"

@.str = private unnamed_addr constant [47 x i8] c"/sys/devices/system/cpu/cpu0/microcode/version\00", align 1
@.str.4 = private unnamed_addr constant [2 x i8] c"r\00", align 1
@.str.5 = private unnamed_addr constant [3 x i8] c"%x\00", align 1
@.str.6 = private unnamed_addr constant [14 x i8] c"/proc/cpuinfo\00", align 1
@.str.7 = private unnamed_addr constant [10 x i8] c"microcode\00", align 1

; Function Attrs: mustprogress nounwind uwtable
define hidden noundef i32 @_ZN2os22cpu_microcode_revisionEv() #1 align 2 {
  %1 = alloca i32, align 4
  %2 = alloca i32, align 4
  %3 = alloca ptr, align 8
  %4 = alloca i32, align 4
  %5 = alloca [2048 x i8], align 16
  %6 = alloca i32, align 4
  %7 = alloca ptr, align 8
  store i32 0, ptr %2, align 4
  %8 = call noundef ptr @_ZN2os5fopenEPKcS1_(ptr noundef @.str, ptr noundef @.str.4)
  store ptr %8, ptr %3, align 8
  %9 = load ptr, ptr %3, align 8
  %10 = icmp ne ptr %9, null
  br i1 %10, label %11, label %21

11:                                               ; preds = %0
  %12 = load ptr, ptr %3, align 8
  %13 = call i32 (ptr, ptr, ...) @__isoc99_fscanf(ptr noundef %12, ptr noundef @.str.5, ptr noundef %2)
  store i32 %13, ptr %4, align 4
  %14 = load ptr, ptr %3, align 8
  %15 = call i32 @fclose(ptr noundef %14)
  %16 = load i32, ptr %4, align 4
  %17 = icmp sgt i32 %16, 0
  br i1 %17, label %18, label %20

18:                                               ; preds = %11
  %19 = load i32, ptr %2, align 4
  store i32 %19, ptr %1, align 4
  br label %58

20:                                               ; preds = %11
  br label %21

21:                                               ; preds = %20, %0
  %22 = call noundef ptr @_ZN2os5fopenEPKcS1_(ptr noundef @.str.6, ptr noundef @.str.4)
  store ptr %22, ptr %3, align 8
  %23 = load ptr, ptr %3, align 8
  %24 = icmp ne ptr %23, null
  br i1 %24, label %25, label %56

25:                                               ; preds = %21
  call void @llvm.memset.p0.i64(ptr align 16 %5, i8 0, i64 2048, i1 false)
  store i32 2048, ptr %6, align 4
  br label %26

26:                                               ; preds = %52, %25
  %27 = load ptr, ptr %3, align 8
  %28 = call i32 @feof(ptr noundef %27) #7
  %29 = icmp ne i32 %28, 0
  %30 = xor i1 %29, true
  br i1 %30, label %31, label %53

31:                                               ; preds = %26
  %32 = getelementptr inbounds [2048 x i8], ptr %5, i64 0, i64 0
  %33 = load i32, ptr %6, align 4
  %34 = load ptr, ptr %3, align 8
  %35 = call ptr @fgets(ptr noundef %32, i32 noundef %33, ptr noundef %34)
  %36 = icmp ne ptr %35, null
  br i1 %36, label %37, label %52

37:                                               ; preds = %31
  %38 = getelementptr inbounds [2048 x i8], ptr %5, i64 0, i64 0
  %39 = call noundef ptr @strstr(ptr noundef %38, ptr noundef @.str.7) #8
  %40 = icmp ne ptr %39, null
  br i1 %40, label %41, label %51

41:                                               ; preds = %37
  %42 = getelementptr inbounds [2048 x i8], ptr %5, i64 0, i64 0
  %43 = call noundef ptr @strchr(ptr noundef %42, i32 noundef 58) #8
  store ptr %43, ptr %7, align 8
  %44 = load ptr, ptr %7, align 8
  %45 = icmp ne ptr %44, null
  br i1 %45, label %46, label %50

46:                                               ; preds = %41
  %47 = load ptr, ptr %7, align 8
  %48 = getelementptr inbounds i8, ptr %47, i64 1
  %49 = call i32 (ptr, ptr, ...) @__isoc99_sscanf(ptr noundef %48, ptr noundef @.str.5, ptr noundef %2) #7
  br label %50

50:                                               ; preds = %46, %41
  br label %53

51:                                               ; preds = %37
  br label %52

52:                                               ; preds = %51, %31
  br label %26, !llvm.loop !7

53:                                               ; preds = %50, %26
  %54 = load ptr, ptr %3, align 8
  %55 = call i32 @fclose(ptr noundef %54)
  br label %56

56:                                               ; preds = %53, %21
  %57 = load i32, ptr %2, align 4
  store i32 %57, ptr %1, align 4
  br label %58

58:                                               ; preds = %56, %18
  %59 = load i32, ptr %1, align 4
  ret i32 %59
}