; Function Attrs: mustprogress nounwind uwtable
define hidden noundef i32 @_ZN2os22cpu_microcode_revisionEv() local_unnamed_addr #5 align 2 {
  %1 = alloca i32, align 4
  %2 = alloca [2048 x i8], align 16
  store i32 0, ptr %1, align 4
  %3 = tail call noundef ptr @_ZN2os5fopenEPKcS1_(ptr noundef nonnull @.str, ptr noundef nonnull @.str.4) #12
  %.not = icmp eq ptr %3, null
  br i1 %.not, label %8, label %4

4:                                                ; preds = %0
  %5 = call i32 (ptr, ptr, ...) @__isoc99_fscanf(ptr noundef nonnull %3, ptr noundef nonnull @.str.5, ptr noundef nonnull %1) #12
  %6 = call i32 @fclose(ptr noundef nonnull %3)
  %7 = icmp sgt i32 %5, 0
  br i1 %7, label %23, label %8

8:                                                ; preds = %4, %0
  %9 = call noundef ptr @_ZN2os5fopenEPKcS1_(ptr noundef nonnull @.str.6, ptr noundef nonnull @.str.4) #12
  %.not14 = icmp eq ptr %9, null
  br i1 %.not14, label %23, label %10

10:                                               ; preds = %8
  call void @llvm.memset.p0.i64(ptr noundef nonnull align 16 dereferenceable(2048) %2, i8 0, i64 2048, i1 false)
  %11 = call i32 @feof(ptr noundef nonnull %9) #12
  %.not1519 = icmp eq i32 %11, 0
  br i1 %.not1519, label %.lr.ph, label %.loopexit

.lr.ph:                                           ; preds = %10, %20
  %12 = call ptr @fgets(ptr noundef nonnull %2, i32 noundef 2048, ptr noundef nonnull %9)
  %.not16 = icmp eq ptr %12, null
  br i1 %.not16, label %20, label %13

13:                                               ; preds = %.lr.ph
  %14 = call noundef ptr @strstr(ptr noundef nonnull dereferenceable(1) %2, ptr noundef nonnull dereferenceable(1) @.str.7) #13
  %.not17 = icmp eq ptr %14, null
  br i1 %.not17, label %20, label %15

15:                                               ; preds = %13
  %16 = call noundef ptr @strchr(ptr noundef nonnull dereferenceable(1) %2, i32 noundef 58) #13
  %.not18 = icmp eq ptr %16, null
  br i1 %.not18, label %.loopexit, label %17

17:                                               ; preds = %15
  %18 = getelementptr inbounds i8, ptr %16, i64 1
  %19 = call i32 (ptr, ptr, ...) @__isoc99_sscanf(ptr noundef nonnull %18, ptr noundef nonnull @.str.5, ptr noundef nonnull %1) #12
  br label %.loopexit

20:                                               ; preds = %13, %.lr.ph
  %21 = call i32 @feof(ptr noundef nonnull %9) #12
  %.not15 = icmp eq i32 %21, 0
  br i1 %.not15, label %.lr.ph, label %.loopexit, !llvm.loop !13

.loopexit:                                        ; preds = %20, %10, %15, %17
  %22 = call i32 @fclose(ptr noundef nonnull %9)
  br label %23

23:                                               ; preds = %8, %.loopexit, %4
  %.0 = load i32, ptr %1, align 4
  ret i32 %.0
}